target datalayout = "e-m:e-p270:32:32-p271:32:32-p272:64:64-i64:64-i128:128-f80:128-n8:16:32:64-S128"
target triple = "x86_64-pc-linux-gnu"

%struct.node_features = type { i32, ptr, ptr }

@.str.2 = private unnamed_addr constant [2 x i8] c",\00", align 1
@active_feature_list = external global ptr, align 8
@node_record_count = external global i32, align 4

; Function Attrs: nounwind uwtable
define dso_local ptr @build_active_feature_bitmap2(ptr noundef %0) #0 {
  %2 = alloca ptr, align 8
  %3 = alloca ptr, align 8
  %4 = alloca ptr, align 8
  %5 = alloca ptr, align 8
  %6 = alloca ptr, align 8
  %7 = alloca ptr, align 8
  %8 = alloca ptr, align 8
  %9 = alloca ptr, align 8
  %10 = alloca i32, align 4
  store ptr %0, ptr %3, align 8
  call void @llvm.lifetime.start.p0(i64 8, ptr %4) #8
  store ptr @.str.2, ptr %4, align 8
  call void @llvm.lifetime.start.p0(i64 8, ptr %5) #8
  call void @llvm.lifetime.start.p0(i64 8, ptr %6) #8
  call void @llvm.lifetime.start.p0(i64 8, ptr %7) #8
  store ptr null, ptr %7, align 8
  call void @llvm.lifetime.start.p0(i64 8, ptr %8) #8
  store ptr null, ptr %8, align 8
  call void @llvm.lifetime.start.p0(i64 8, ptr %9) #8
  %11 = load ptr, ptr %3, align 8
  %12 = icmp ne ptr %11, null
  br i1 %12, label %13, label %19

13:                                               ; preds = %1
  %14 = load ptr, ptr %3, align 8
  %15 = getelementptr inbounds i8, ptr %14, i64 0
  %16 = load i8, ptr %15, align 1
  %17 = sext i8 %16 to i32
  %18 = icmp eq i32 %17, 0
  br i1 %18, label %19, label %22

19:                                               ; preds = %13, %1
  %20 = call ptr @node_conf_get_active_bitmap()
  store ptr %20, ptr %8, align 8
  %21 = load ptr, ptr %8, align 8
  store ptr %21, ptr %2, align 8
  store i32 1, ptr %10, align 4
  br label %71

22:                                               ; preds = %13
  %23 = load ptr, ptr %3, align 8
  %24 = call ptr @xstrdup(ptr noundef %23)
  store ptr %24, ptr %5, align 8
  %25 = load ptr, ptr %5, align 8
  %26 = load ptr, ptr %4, align 8
  %27 = call ptr @strtok_r(ptr noundef %25, ptr noundef %26, ptr noundef %7) #8
  store ptr %27, ptr %6, align 8
  br label %28

28:                                               ; preds = %66, %22
  %29 = load ptr, ptr %6, align 8
  %30 = icmp ne ptr %29, null
  br i1 %30, label %31, label %69

31:                                               ; preds = %28
  %32 = load ptr, ptr @active_feature_list, align 8
  %33 = load ptr, ptr %6, align 8
  %34 = call ptr @list_find_first(ptr noundef %32, ptr noundef @list_find_feature, ptr noundef %33)
  store ptr %34, ptr %9, align 8
  %35 = load ptr, ptr %9, align 8
  %36 = icmp ne ptr %35, null
  br i1 %36, label %37, label %56

37:                                               ; preds = %31
  %38 = load ptr, ptr %9, align 8
  %39 = getelementptr inbounds nuw %struct.node_features, ptr %38, i32 0, i32 2
  %40 = load ptr, ptr %39, align 8
  %41 = icmp ne ptr %40, null
  br i1 %41, label %42, label %56

42:                                               ; preds = %37
  %43 = load ptr, ptr %8, align 8
  %44 = icmp ne ptr %43, null
  br i1 %44, label %50, label %45

45:                                               ; preds = %42
  %46 = load ptr, ptr %9, align 8
  %47 = getelementptr inbounds nuw %struct.node_features, ptr %46, i32 0, i32 2
  %48 = load ptr, ptr %47, align 8
  %49 = call ptr @bit_copy(ptr noundef %48)
  store ptr %49, ptr %8, align 8
  br label %55

50:                                               ; preds = %42
  %51 = load ptr, ptr %8, align 8
  %52 = load ptr, ptr %9, align 8
  %53 = getelementptr inbounds nuw %struct.node_features, ptr %52, i32 0, i32 2
  %54 = load ptr, ptr %53, align 8
  call void @bit_and(ptr noundef %51, ptr noundef %54)
  br label %55

55:                                               ; preds = %50, %45
  br label %66

56:                                               ; preds = %37, %31
  %57 = load ptr, ptr %8, align 8
  %58 = icmp ne ptr %57, null
  br i1 %58, label %63, label %59

59:                                               ; preds = %56
  %60 = load i32, ptr @node_record_count, align 4
  %61 = sext i32 %60 to i64
  %62 = call ptr @bit_alloc(i64 noundef %61)
  store ptr %62, ptr %8, align 8
  br label %65

63:                                               ; preds = %56
  %64 = load ptr, ptr %8, align 8
  call void @bit_clear_all(ptr noundef %64)
  br label %65

65:                                               ; preds = %63, %59
  br label %69

66:                                               ; preds = %55
  %67 = load ptr, ptr %4, align 8
  %68 = call ptr @strtok_r(ptr noundef null, ptr noundef %67, ptr noundef %7) #8
  store ptr %68, ptr %6, align 8
  br label %28, !llvm.loop !20

69:                                               ; preds = %65, %28
  call void @slurm_xfree(ptr noundef %5)
  %70 = load ptr, ptr %8, align 8
  store ptr %70, ptr %2, align 8
  store i32 1, ptr %10, align 4
  br label %71

71:                                               ; preds = %69, %19
  call void @llvm.lifetime.end.p0(i64 8, ptr %9) #8
  call void @llvm.lifetime.end.p0(i64 8, ptr %8) #8
  call void @llvm.lifetime.end.p0(i64 8, ptr %7) #8
  call void @llvm.lifetime.end.p0(i64 8, ptr %6) #8
  call void @llvm.lifetime.end.p0(i64 8, ptr %5) #8
  call void @llvm.lifetime.end.p0(i64 8, ptr %4) #8
  %72 = load ptr, ptr %2, align 8
  ret ptr %72
}