; Function Attrs: nounwind uwtable
define dso_local ptr @build_active_feature_bitmap2(ptr noundef %0) local_unnamed_addr #0 {
  %2 = alloca ptr, align 8
  %3 = alloca ptr, align 8
  call void @llvm.lifetime.start.p0(i64 8, ptr nonnull %2) #14
  call void @llvm.lifetime.start.p0(i64 8, ptr nonnull %3) #14
  store ptr null, ptr %3, align 8
  %.not = icmp eq ptr %0, null
  br i1 %.not, label %7, label %4

4:                                                ; preds = %1
  %5 = load i8, ptr %0, align 1
  %6 = icmp eq i8 %5, 0
  br i1 %6, label %7, label %9

7:                                                ; preds = %4, %1
  %8 = tail call ptr @node_conf_get_active_bitmap() #14
  br label %29

9:                                                ; preds = %4
  %10 = tail call ptr @xstrdup(ptr noundef nonnull %0) #14
  store ptr %10, ptr %2, align 8
  %11 = call ptr @strtok_r(ptr noundef %10, ptr noundef nonnull @.str.2, ptr noundef nonnull %3) #14
  %.not2329 = icmp eq ptr %11, null
  br i1 %.not2329, label %.loopexit, label %.lr.ph

.lr.ph:                                           ; preds = %9, %27
  %.01831 = phi ptr [ %.2, %27 ], [ null, %9 ]
  %.01930 = phi ptr [ %28, %27 ], [ %11, %9 ]
  %12 = load ptr, ptr @active_feature_list, align 8
  %13 = call ptr @list_find_first(ptr noundef %12, ptr noundef nonnull @list_find_feature, ptr noundef nonnull %.01930) #14
  %.not24 = icmp eq ptr %13, null
  br i1 %.not24, label %21, label %14

14:                                               ; preds = %.lr.ph
  %15 = getelementptr inbounds nuw i8, ptr %13, i64 16
  %16 = load ptr, ptr %15, align 8
  %.not25 = icmp eq ptr %16, null
  br i1 %.not25, label %21, label %17

17:                                               ; preds = %14
  %.not27 = icmp eq ptr %.01831, null
  br i1 %.not27, label %18, label %20

18:                                               ; preds = %17
  %19 = call ptr @bit_copy(ptr noundef nonnull %16) #14
  br label %27

20:                                               ; preds = %17
  call void @bit_and(ptr noundef nonnull %.01831, ptr noundef nonnull %16) #14
  br label %27

21:                                               ; preds = %14, %.lr.ph
  %.not26 = icmp eq ptr %.01831, null
  br i1 %.not26, label %22, label %26

22:                                               ; preds = %21
  %23 = load i32, ptr @node_record_count, align 4
  %24 = sext i32 %23 to i64
  %25 = call ptr @bit_alloc(i64 noundef %24) #14
  br label %.loopexit

26:                                               ; preds = %21
  call void @bit_clear_all(ptr noundef nonnull %.01831) #14
  br label %.loopexit

27:                                               ; preds = %18, %20
  %.2 = phi ptr [ %.01831, %20 ], [ %19, %18 ]
  %28 = call ptr @strtok_r(ptr noundef null, ptr noundef nonnull @.str.2, ptr noundef nonnull %3) #14
  %.not23 = icmp eq ptr %28, null
  br i1 %.not23, label %.loopexit, label %.lr.ph, !llvm.loop !20

.loopexit:                                        ; preds = %27, %9, %22, %26
  %.1 = phi ptr [ %.01831, %26 ], [ %25, %22 ], [ null, %9 ], [ %.2, %27 ]
  call void @slurm_xfree(ptr noundef nonnull %2) #14
  br label %29

29:                                               ; preds = %.loopexit, %7
  %.0 = phi ptr [ %8, %7 ], [ %.1, %.loopexit ]
  call void @llvm.lifetime.end.p0(i64 8, ptr nonnull %3) #14
  call void @llvm.lifetime.end.p0(i64 8, ptr nonnull %2) #14
  ret ptr %.0
}